; Function Attrs: nounwind uwtable
define hidden i32 @exr_attr_string_create(ptr noundef %0, ptr noundef %1, ptr noundef readonly %2) local_unnamed_addr #0 {
  %.not = icmp eq ptr %2, null
  br i1 %.not, label %.split, label %23

.split:                                           ; preds = %3
  %.not.i = icmp eq ptr %0, null
  br i1 %.not.i, label %exr_attr_string_create_with_length.exit, label %4

4:                                                ; preds = %.split
  %.not23.i = icmp eq ptr %1, null
  br i1 %.not23.i, label %5, label %9

5:                                                ; preds = %4
  %6 = getelementptr inbounds nuw i8, ptr %0, i64 64
  %7 = load ptr, ptr %6, align 8, !tbaa !22
  %8 = tail call i32 %7(ptr noundef nonnull %0, i32 noundef 3, ptr noundef nonnull @.str.4) #4
  br label %exr_attr_string_create_with_length.exit

9:                                                ; preds = %4
  tail call void @llvm.memset.p0.i64(ptr noundef nonnull align 8 dereferenceable(16) %1, i8 0, i64 16, i1 false)
  %10 = getelementptr inbounds nuw i8, ptr %0, i64 88
  %11 = load ptr, ptr %10, align 8, !tbaa !23
  %12 = tail call ptr %11(i64 noundef 1) #4
  %13 = getelementptr inbounds nuw i8, ptr %1, i64 8
  store ptr %12, ptr %13, align 8, !tbaa !24
  %14 = icmp eq ptr %12, null
  br i1 %14, label %15, label %exr_attr_string_init.exit.thread.i

15:                                               ; preds = %9
  %16 = getelementptr inbounds nuw i8, ptr %0, i64 56
  %17 = load ptr, ptr %16, align 8, !tbaa !25
  %18 = tail call i32 %17(ptr noundef nonnull %0, i32 noundef 1) #4
  %19 = icmp eq i32 %18, 0
  br i1 %19, label %exr_attr_string_init.exit._crit_edge.i, label %exr_attr_string_create_with_length.exit

exr_attr_string_init.exit.thread.i:               ; preds = %9
  store i32 0, ptr %1, align 8, !tbaa !26
  %20 = getelementptr inbounds nuw i8, ptr %1, i64 4
  store i32 1, ptr %20, align 4, !tbaa !27
  br label %21

exr_attr_string_init.exit._crit_edge.i:           ; preds = %15
  %.pre.i = load ptr, ptr %13, align 8, !tbaa !24
  br label %21

21:                                               ; preds = %exr_attr_string_init.exit._crit_edge.i, %exr_attr_string_init.exit.thread.i
  %22 = phi ptr [ %.pre.i, %exr_attr_string_init.exit._crit_edge.i ], [ %12, %exr_attr_string_init.exit.thread.i ]
  store i8 0, ptr %22, align 1, !tbaa !28
  br label %exr_attr_string_create_with_length.exit

23:                                               ; preds = %3
  %24 = tail call i64 @strlen(ptr noundef nonnull dereferenceable(1) %2) #5
  %25 = icmp ult i64 %24, 2147483647
  br i1 %25, label %.split15, label %26

26:                                               ; preds = %23
  %.not19 = icmp eq ptr %0, null
  br i1 %.not19, label %exr_attr_string_create_with_length.exit, label %27

27:                                               ; preds = %26
  %28 = getelementptr inbounds nuw i8, ptr %0, i64 64
  %29 = load ptr, ptr %28, align 8, !tbaa !22
  %30 = tail call i32 %29(ptr noundef nonnull %0, i32 noundef 3, ptr noundef nonnull @.str.3) #4
  br label %exr_attr_string_create_with_length.exit

.split15:                                         ; preds = %23
  %31 = trunc nuw nsw i64 %24 to i32
  %.not.i20 = icmp eq ptr %0, null
  br i1 %.not.i20, label %exr_attr_string_create_with_length.exit, label %32

32:                                               ; preds = %.split15
  %.not23.i21 = icmp eq ptr %1, null
  br i1 %.not23.i21, label %33, label %37

33:                                               ; preds = %32
  %34 = getelementptr inbounds nuw i8, ptr %0, i64 64
  %35 = load ptr, ptr %34, align 8, !tbaa !22
  %36 = tail call i32 %35(ptr noundef nonnull %0, i32 noundef 3, ptr noundef nonnull @.str.4) #4
  br label %exr_attr_string_create_with_length.exit

37:                                               ; preds = %32
  tail call void @llvm.memset.p0.i64(ptr noundef nonnull align 8 dereferenceable(16) %1, i8 0, i64 16, i1 false)
  %38 = getelementptr inbounds nuw i8, ptr %0, i64 88
  %39 = load ptr, ptr %38, align 8, !tbaa !23
  %40 = add nuw nsw i32 %31, 1
  %41 = zext nneg i32 %40 to i64
  %42 = tail call ptr %39(i64 noundef %41) #4
  %43 = getelementptr inbounds nuw i8, ptr %1, i64 8
  store ptr %42, ptr %43, align 8, !tbaa !24
  %44 = icmp eq ptr %42, null
  br i1 %44, label %exr_attr_string_init.exit.i, label %exr_attr_string_init.exit.thread.i22

exr_attr_string_init.exit.thread.i22:             ; preds = %37
  store i32 %31, ptr %1, align 8, !tbaa !26
  %45 = getelementptr inbounds nuw i8, ptr %1, i64 4
  store i32 %40, ptr %45, align 4, !tbaa !27
  br label %50

exr_attr_string_init.exit.i:                      ; preds = %37
  %46 = getelementptr inbounds nuw i8, ptr %0, i64 56
  %47 = load ptr, ptr %46, align 8, !tbaa !25
  %48 = tail call i32 %47(ptr noundef nonnull %0, i32 noundef 1) #4
  %49 = icmp eq i32 %48, 0
  br i1 %49, label %exr_attr_string_init.exit._crit_edge.i24, label %exr_attr_string_create_with_length.exit

exr_attr_string_init.exit._crit_edge.i24:         ; preds = %exr_attr_string_init.exit.i
  %.pre.i26 = load ptr, ptr %43, align 8, !tbaa !24
  br label %50

50:                                               ; preds = %exr_attr_string_init.exit._crit_edge.i24, %exr_attr_string_init.exit.thread.i22
  %51 = phi ptr [ %.pre.i26, %exr_attr_string_init.exit._crit_edge.i24 ], [ %42, %exr_attr_string_init.exit.thread.i22 ]
  %.not31 = icmp eq i64 %24, 0
  br i1 %.not31, label %54, label %52

52:                                               ; preds = %50
  %53 = tail call ptr @strncpy(ptr noundef %51, ptr noundef nonnull readonly %2, i64 noundef %24) #4
  br label %54

54:                                               ; preds = %52, %50
  %55 = getelementptr inbounds nuw i8, ptr %51, i64 %24
  store i8 0, ptr %55, align 1, !tbaa !28
  br label %exr_attr_string_create_with_length.exit

exr_attr_string_create_with_length.exit:          ; preds = %27, %26, %54, %exr_attr_string_init.exit.i, %33, %.split15, %21, %15, %5, %.split
  %.1 = phi i32 [ %8, %5 ], [ 2, %.split ], [ 0, %21 ], [ %18, %15 ], [ %36, %33 ], [ 2, %.split15 ], [ 0, %54 ], [ %48, %exr_attr_string_init.exit.i ], [ 2, %26 ], [ %30, %27 ]
  ret i32 %.1
}